target datalayout = "e-m:e-p270:32:32-p271:32:32-p272:64:64-i64:64-i128:128-f80:128-n8:16:32:64-S128"
target triple = "x86_64-pc-linux-gnu"

%struct.mbedtls_md_context_t = type { ptr, ptr, ptr }

@.str.2 = private unnamed_addr constant [22 x i8] c"  PBKDF2 (SHA1) #%d: \00", align 1
@plen_test_data = internal constant [6 x i64] [i64 8, i64 8, i64 8, i64 24, i64 9, i64 0], align 16
@slen_test_data = internal constant [6 x i64] [i64 4, i64 4, i64 4, i64 36, i64 5, i64 0], align 16
@it_cnt_test_data = internal constant [6 x i32] [i32 1, i32 2, i32 4096, i32 4096, i32 4096, i32 0], align 16
@key_len_test_data = internal constant [6 x i32] [i32 20, i32 20, i32 20, i32 25, i32 16, i32 0], align 16
@.str.3 = private unnamed_addr constant [8 x i8] c"failed\0A\00", align 1
@.str.4 = private unnamed_addr constant [8 x i8] c"passed\0A\00", align 1
@.str.5 = private unnamed_addr constant [2 x i8] c"\0A\00", align 1

; Function Attrs: nounwind uwtable
define hidden i32 @mbedtls_pkcs5_pbkdf2_hmac_ext(i32 noundef %0, ptr noundef %1, i64 noundef %2, ptr noundef %3, i64 noundef %4, i32 noundef %5, i32 noundef %6, ptr noundef %7) #0 {
  %9 = alloca i32, align 4
  %10 = alloca i32, align 4
  %11 = alloca ptr, align 8
  %12 = alloca i64, align 8
  %13 = alloca ptr, align 8
  %14 = alloca i64, align 8
  %15 = alloca i32, align 4
  %16 = alloca i32, align 4
  %17 = alloca ptr, align 8
  %18 = alloca %struct.mbedtls_md_context_t, align 8
  %19 = alloca ptr, align 8
  %20 = alloca i32, align 4
  %21 = alloca i32, align 4
  store i32 %0, ptr %10, align 4, !tbaa !8
  store ptr %1, ptr %11, align 8, !tbaa !10
  store i64 %2, ptr %12, align 8, !tbaa !12
  store ptr %3, ptr %13, align 8, !tbaa !10
  store i64 %4, ptr %14, align 8, !tbaa !12
  store i32 %5, ptr %15, align 4, !tbaa !8
  store i32 %6, ptr %16, align 4, !tbaa !8
  store ptr %7, ptr %17, align 8, !tbaa !10
  call void @llvm.lifetime.start.p0(i64 24, ptr %18) #8
  call void @llvm.lifetime.start.p0(i64 8, ptr %19) #8
  store ptr null, ptr %19, align 8, !tbaa !25
  call void @llvm.lifetime.start.p0(i64 4, ptr %20) #8
  store i32 -110, ptr %20, align 4, !tbaa !8
  %22 = load i32, ptr %10, align 4, !tbaa !8
  %23 = call ptr @mbedtls_md_info_from_type(i32 noundef %22)
  store ptr %23, ptr %19, align 8, !tbaa !25
  %24 = load ptr, ptr %19, align 8, !tbaa !25
  %25 = icmp eq ptr %24, null
  br i1 %25, label %26, label %27

26:                                               ; preds = %8
  store i32 -11904, ptr %9, align 4
  store i32 1, ptr %21, align 4
  br label %43

27:                                               ; preds = %8
  call void @mbedtls_md_init(ptr noundef %18)
  %28 = load ptr, ptr %19, align 8, !tbaa !25
  %29 = call i32 @mbedtls_md_setup(ptr noundef %18, ptr noundef %28, i32 noundef 1)
  store i32 %29, ptr %20, align 4, !tbaa !8
  %30 = icmp ne i32 %29, 0
  br i1 %30, label %31, label %32

31:                                               ; preds = %27
  br label %41

32:                                               ; preds = %27
  %33 = load ptr, ptr %11, align 8, !tbaa !10
  %34 = load i64, ptr %12, align 8, !tbaa !12
  %35 = load ptr, ptr %13, align 8, !tbaa !10
  %36 = load i64, ptr %14, align 8, !tbaa !12
  %37 = load i32, ptr %15, align 4, !tbaa !8
  %38 = load i32, ptr %16, align 4, !tbaa !8
  %39 = load ptr, ptr %17, align 8, !tbaa !10
  %40 = call i32 @pkcs5_pbkdf2_hmac(ptr noundef %18, ptr noundef %33, i64 noundef %34, ptr noundef %35, i64 noundef %36, i32 noundef %37, i32 noundef %38, ptr noundef %39)
  store i32 %40, ptr %20, align 4, !tbaa !8
  br label %41

41:                                               ; preds = %32, %31
  call void @mbedtls_md_free(ptr noundef %18)
  %42 = load i32, ptr %20, align 4, !tbaa !8
  store i32 %42, ptr %9, align 4
  store i32 1, ptr %21, align 4
  br label %43

43:                                               ; preds = %41, %26
  call void @llvm.lifetime.end.p0(i64 4, ptr %20) #8
  call void @llvm.lifetime.end.p0(i64 8, ptr %19) #8
  call void @llvm.lifetime.end.p0(i64 24, ptr %18) #8
  %44 = load i32, ptr %9, align 4
  ret i32 %44
}

; Function Attrs: nounwind uwtable
define hidden i32 @mbedtls_pkcs5_self_test(i32 noundef %0) #0 {
  %2 = alloca i32, align 4
  %3 = alloca i32, align 4
  %4 = alloca i32, align 4
  %5 = alloca [64 x i8], align 16
  store i32 %0, ptr %2, align 4, !tbaa !8
  call void @llvm.lifetime.start.p0(i64 4, ptr %3) #8
  call void @llvm.lifetime.start.p0(i64 4, ptr %4) #8
  call void @llvm.lifetime.start.p0(i64 64, ptr %5) #8
  store i32 0, ptr %4, align 4, !tbaa !8
  br label %6

6:                                                ; preds = %69, %1
  %7 = load i32, ptr %4, align 4, !tbaa !8
  %8 = icmp slt i32 %7, 6
  br i1 %8, label %9, label %72

9:                                                ; preds = %6
  %10 = load i32, ptr %2, align 4, !tbaa !8
  %11 = icmp ne i32 %10, 0
  br i1 %11, label %12, label %15

12:                                               ; preds = %9
  %13 = load i32, ptr %4, align 4, !tbaa !8
  %14 = call i32 (ptr, ...) @printf(ptr noundef @.str.2, i32 noundef %13)
  br label %15

15:                                               ; preds = %12, %9
  %16 = load i32, ptr %4, align 4, !tbaa !8
  %17 = sext i32 %16 to i64
  %18 = getelementptr inbounds [6 x [32 x i8]], ptr @password_test_data, i64 0, i64 %17
  %19 = getelementptr inbounds [32 x i8], ptr %18, i64 0, i64 0
  %20 = load i32, ptr %4, align 4, !tbaa !8
  %21 = sext i32 %20 to i64
  %22 = getelementptr inbounds [6 x i64], ptr @plen_test_data, i64 0, i64 %21
  %23 = load i64, ptr %22, align 8, !tbaa !12
  %24 = load i32, ptr %4, align 4, !tbaa !8
  %25 = sext i32 %24 to i64
  %26 = getelementptr inbounds [6 x [40 x i8]], ptr @salt_test_data, i64 0, i64 %25
  %27 = getelementptr inbounds [40 x i8], ptr %26, i64 0, i64 0
  %28 = load i32, ptr %4, align 4, !tbaa !8
  %29 = sext i32 %28 to i64
  %30 = getelementptr inbounds [6 x i64], ptr @slen_test_data, i64 0, i64 %29
  %31 = load i64, ptr %30, align 8, !tbaa !12
  %32 = load i32, ptr %4, align 4, !tbaa !8
  %33 = sext i32 %32 to i64
  %34 = getelementptr inbounds [6 x i32], ptr @it_cnt_test_data, i64 0, i64 %33
  %35 = load i32, ptr %34, align 4, !tbaa !8
  %36 = load i32, ptr %4, align 4, !tbaa !8
  %37 = sext i32 %36 to i64
  %38 = getelementptr inbounds [6 x i32], ptr @key_len_test_data, i64 0, i64 %37
  %39 = load i32, ptr %38, align 4, !tbaa !8
  %40 = getelementptr inbounds [64 x i8], ptr %5, i64 0, i64 0
  %41 = call i32 @mbedtls_pkcs5_pbkdf2_hmac_ext(i32 noundef 5, ptr noundef %19, i64 noundef %23, ptr noundef %27, i64 noundef %31, i32 noundef %35, i32 noundef %39, ptr noundef %40)
  store i32 %41, ptr %3, align 4, !tbaa !8
  %42 = load i32, ptr %3, align 4, !tbaa !8
  %43 = icmp ne i32 %42, 0
  br i1 %43, label %57, label %44

44:                                               ; preds = %15
  %45 = load i32, ptr %4, align 4, !tbaa !8
  %46 = sext i32 %45 to i64
  %47 = getelementptr inbounds [6 x [32 x i8]], ptr @result_key_test_data, i64 0, i64 %46
  %48 = getelementptr inbounds [32 x i8], ptr %47, i64 0, i64 0
  %49 = getelementptr inbounds [64 x i8], ptr %5, i64 0, i64 0
  %50 = load i32, ptr %4, align 4, !tbaa !8
  %51 = sext i32 %50 to i64
  %52 = getelementptr inbounds [6 x i32], ptr @key_len_test_data, i64 0, i64 %51
  %53 = load i32, ptr %52, align 4, !tbaa !8
  %54 = zext i32 %53 to i64
  %55 = call i32 @memcmp(ptr noundef %48, ptr noundef %49, i64 noundef %54) #9
  %56 = icmp ne i32 %55, 0
  br i1 %56, label %57, label %63

57:                                               ; preds = %44, %15
  %58 = load i32, ptr %2, align 4, !tbaa !8
  %59 = icmp ne i32 %58, 0
  br i1 %59, label %60, label %62

60:                                               ; preds = %57
  %61 = call i32 (ptr, ...) @printf(ptr noundef @.str.3)
  br label %62

62:                                               ; preds = %60, %57
  store i32 1, ptr %3, align 4, !tbaa !8
  br label %78

63:                                               ; preds = %44
  %64 = load i32, ptr %2, align 4, !tbaa !8
  %65 = icmp ne i32 %64, 0
  br i1 %65, label %66, label %68

66:                                               ; preds = %63
  %67 = call i32 (ptr, ...) @printf(ptr noundef @.str.4)
  br label %68

68:                                               ; preds = %66, %63
  br label %69

69:                                               ; preds = %68
  %70 = load i32, ptr %4, align 4, !tbaa !8
  %71 = add nsw i32 %70, 1
  store i32 %71, ptr %4, align 4, !tbaa !8
  br label %6, !llvm.loop !36

72:                                               ; preds = %6
  %73 = load i32, ptr %2, align 4, !tbaa !8
  %74 = icmp ne i32 %73, 0
  br i1 %74, label %75, label %77

75:                                               ; preds = %72
  %76 = call i32 (ptr, ...) @printf(ptr noundef @.str.5)
  br label %77

77:                                               ; preds = %75, %72
  br label %78

78:                                               ; preds = %77, %62
  %79 = load i32, ptr %3, align 4, !tbaa !8
  call void @llvm.lifetime.end.p0(i64 64, ptr %5) #8
  call void @llvm.lifetime.end.p0(i64 4, ptr %4) #8
  call void @llvm.lifetime.end.p0(i64 4, ptr %3) #8
  ret i32 %79
}