; Function Attrs: nounwind uwtable
define hidden range(i32 0, 2) i32 @mbedtls_pkcs5_self_test(i32 noundef %0) local_unnamed_addr #0 {
  %2 = alloca %struct.mbedtls_md_context_t, align 8
  %3 = alloca [64 x i8], align 16
  call void @llvm.lifetime.start.p0(i64 64, ptr nonnull %3) #8
  %.not19 = icmp eq i32 %0, 0
  br i1 %.not19, label %.split.us, label %.split

.split.us:                                        ; preds = %1, %22
  %indvars.iv41 = phi i64 [ %indvars.iv.next42, %22 ], [ 0, %1 ]
  %4 = getelementptr inbounds nuw [6 x [32 x i8]], ptr @password_test_data, i64 0, i64 %indvars.iv41
  %5 = getelementptr inbounds nuw [6 x i64], ptr @plen_test_data, i64 0, i64 %indvars.iv41
  %6 = load i64, ptr %5, align 8, !tbaa !3
  %7 = getelementptr inbounds nuw [6 x [40 x i8]], ptr @salt_test_data, i64 0, i64 %indvars.iv41
  %8 = getelementptr inbounds nuw [6 x i64], ptr @slen_test_data, i64 0, i64 %indvars.iv41
  %9 = load i64, ptr %8, align 8, !tbaa !3
  %10 = getelementptr inbounds nuw [6 x i32], ptr @it_cnt_test_data, i64 0, i64 %indvars.iv41
  %11 = load i32, ptr %10, align 4, !tbaa !7
  %12 = getelementptr inbounds nuw [6 x i32], ptr @key_len_test_data, i64 0, i64 %indvars.iv41
  %13 = load i32, ptr %12, align 4, !tbaa !7
  call void @llvm.lifetime.start.p0(i64 24, ptr nonnull %2) #8
  %14 = call ptr @mbedtls_md_info_from_type(i32 noundef 5) #8
  %15 = icmp eq ptr %14, null
  br i1 %15, label %.loopexit, label %16

16:                                               ; preds = %.split.us
  call void @mbedtls_md_init(ptr noundef nonnull %2) #8
  %17 = call i32 @mbedtls_md_setup(ptr noundef nonnull %2, ptr noundef nonnull %14, i32 noundef 1) #8
  %.not.i.us = icmp eq i32 %17, 0
  br i1 %.not.i.us, label %mbedtls_pkcs5_pbkdf2_hmac_ext.exit.us, label %mbedtls_pkcs5_pbkdf2_hmac_ext.exit.thread25

mbedtls_pkcs5_pbkdf2_hmac_ext.exit.us:            ; preds = %16
  %18 = call fastcc i32 @pkcs5_pbkdf2_hmac(ptr noundef nonnull %2, ptr noundef nonnull %4, i64 noundef %6, ptr noundef nonnull %7, i64 noundef %9, i32 noundef %11, i32 noundef %13, ptr noundef nonnull %3)
  call void @mbedtls_md_free(ptr noundef nonnull %2) #8
  call void @llvm.lifetime.end.p0(i64 24, ptr nonnull %2) #8
  %.not20.us = icmp eq i32 %18, 0
  br i1 %.not20.us, label %19, label %.critedge

19:                                               ; preds = %mbedtls_pkcs5_pbkdf2_hmac_ext.exit.us
  %20 = getelementptr inbounds nuw [6 x [32 x i8]], ptr @result_key_test_data, i64 0, i64 %indvars.iv41
  %21 = zext i32 %13 to i64
  %bcmp.us = call i32 @bcmp(ptr nonnull %20, ptr nonnull %3, i64 %21)
  %.not21.us = icmp eq i32 %bcmp.us, 0
  br i1 %.not21.us, label %22, label %.critedge

22:                                               ; preds = %19
  %indvars.iv.next42 = add nuw nsw i64 %indvars.iv41, 1
  %exitcond44.not = icmp eq i64 %indvars.iv.next42, 6
  br i1 %exitcond44.not, label %.split35.us, label %.split.us, !llvm.loop !26

.split:                                           ; preds = %1, %43
  %indvars.iv = phi i64 [ %indvars.iv.next, %43 ], [ 0, %1 ]
  %23 = trunc nuw nsw i64 %indvars.iv to i32
  %24 = call i32 (ptr, ...) @printf(ptr noundef nonnull dereferenceable(1) @.str.2, i32 noundef %23)
  %25 = getelementptr inbounds nuw [6 x [32 x i8]], ptr @password_test_data, i64 0, i64 %indvars.iv
  %26 = getelementptr inbounds nuw [6 x i64], ptr @plen_test_data, i64 0, i64 %indvars.iv
  %27 = load i64, ptr %26, align 8, !tbaa !3
  %28 = getelementptr inbounds nuw [6 x [40 x i8]], ptr @salt_test_data, i64 0, i64 %indvars.iv
  %29 = getelementptr inbounds nuw [6 x i64], ptr @slen_test_data, i64 0, i64 %indvars.iv
  %30 = load i64, ptr %29, align 8, !tbaa !3
  %31 = getelementptr inbounds nuw [6 x i32], ptr @it_cnt_test_data, i64 0, i64 %indvars.iv
  %32 = load i32, ptr %31, align 4, !tbaa !7
  %33 = getelementptr inbounds nuw [6 x i32], ptr @key_len_test_data, i64 0, i64 %indvars.iv
  %34 = load i32, ptr %33, align 4, !tbaa !7
  call void @llvm.lifetime.start.p0(i64 24, ptr nonnull %2) #8
  %35 = call ptr @mbedtls_md_info_from_type(i32 noundef 5) #8
  %36 = icmp eq ptr %35, null
  br i1 %36, label %.loopexit, label %37

37:                                               ; preds = %.split
  call void @mbedtls_md_init(ptr noundef nonnull %2) #8
  %38 = call i32 @mbedtls_md_setup(ptr noundef nonnull %2, ptr noundef nonnull %35, i32 noundef 1) #8
  %.not.i = icmp eq i32 %38, 0
  br i1 %.not.i, label %mbedtls_pkcs5_pbkdf2_hmac_ext.exit, label %mbedtls_pkcs5_pbkdf2_hmac_ext.exit.thread25

mbedtls_pkcs5_pbkdf2_hmac_ext.exit.thread25:      ; preds = %37, %16
  call void @mbedtls_md_free(ptr noundef nonnull %2) #8
  br label %.loopexit

mbedtls_pkcs5_pbkdf2_hmac_ext.exit:               ; preds = %37
  %39 = call fastcc i32 @pkcs5_pbkdf2_hmac(ptr noundef nonnull %2, ptr noundef nonnull %25, i64 noundef %27, ptr noundef nonnull %28, i64 noundef %30, i32 noundef %32, i32 noundef %34, ptr noundef nonnull %3)
  call void @mbedtls_md_free(ptr noundef nonnull %2) #8
  call void @llvm.lifetime.end.p0(i64 24, ptr nonnull %2) #8
  %.not20 = icmp eq i32 %39, 0
  br i1 %.not20, label %40, label %.critedge36

40:                                               ; preds = %mbedtls_pkcs5_pbkdf2_hmac_ext.exit
  %41 = getelementptr inbounds nuw [6 x [32 x i8]], ptr @result_key_test_data, i64 0, i64 %indvars.iv
  %42 = zext i32 %34 to i64
  %bcmp = call i32 @bcmp(ptr nonnull %41, ptr nonnull %3, i64 %42)
  %.not21 = icmp eq i32 %bcmp, 0
  br i1 %.not21, label %43, label %.critedge36

.loopexit:                                        ; preds = %.split, %.split.us, %mbedtls_pkcs5_pbkdf2_hmac_ext.exit.thread25
  call void @llvm.lifetime.end.p0(i64 24, ptr nonnull %2) #8
  br i1 %.not19, label %.critedge, label %.critedge36

.critedge36:                                      ; preds = %mbedtls_pkcs5_pbkdf2_hmac_ext.exit, %40, %.loopexit
  %puts22 = call i32 @puts(ptr nonnull dereferenceable(1) @str.1)
  br label %.critedge

43:                                               ; preds = %40
  %puts = call i32 @puts(ptr nonnull dereferenceable(1) @str)
  %indvars.iv.next = add nuw nsw i64 %indvars.iv, 1
  %exitcond.not = icmp eq i64 %indvars.iv.next, 6
  br i1 %exitcond.not, label %.split35.us, label %.split, !llvm.loop !26

.split35.us:                                      ; preds = %43, %22
  br i1 %.not19, label %.critedge, label %44

44:                                               ; preds = %.split35.us
  %putchar = call i32 @putchar(i32 10)
  br label %.critedge

.critedge:                                        ; preds = %mbedtls_pkcs5_pbkdf2_hmac_ext.exit.us, %19, %.loopexit, %.critedge36, %.split35.us, %44
  %.1 = phi i32 [ 0, %44 ], [ 0, %.split35.us ], [ 1, %.critedge36 ], [ 1, %.loopexit ], [ 1, %19 ], [ 1, %mbedtls_pkcs5_pbkdf2_hmac_ext.exit.us ]
  call void @llvm.lifetime.end.p0(i64 64, ptr nonnull %3) #8
  ret i32 %.1
}